target datalayout = "e-m:e-p270:32:32-p271:32:32-p272:64:64-i64:64-i128:128-f80:128-n8:16:32:64-S128"
target triple = "x86_64-pc-linux-gnu"

%struct._zval_struct = type { %union._zend_value, %union.anon.3, %union.anon.6 }
%union._zend_value = type { i64 }
%union.anon.3 = type { i32 }
%union.anon.6 = type { i32 }
%struct.php_dom_xpath_callbacks = type { ptr, ptr, ptr }
%struct._xmlXPathParserContext = type { ptr, ptr, i32, ptr, ptr, i32, i32, ptr, ptr, i32, ptr, i32 }
%struct._xmlXPathContext = type { ptr, ptr, i32, i32, ptr, i32, i32, ptr, i32, i32, ptr, i32, i32, ptr, ptr, i32, ptr, i32, i32, i32, ptr, ptr, ptr, ptr, ptr, ptr, ptr, ptr, ptr, ptr, ptr, i32, ptr, ptr, %struct._xmlError, ptr, ptr, i32, ptr, i64, i64, i32 }
%struct._xmlError = type { i32, i32, ptr, i32, ptr, i32, ptr, ptr, ptr, i32, i32, ptr, ptr }

@.str = private unnamed_addr constant [1 x i8] zeroinitializer, align 1

; Function Attrs: nounwind uwtable
define internal void @php_dom_xpath_callback_cleanup_args(ptr noundef %0, i32 noundef %1) #0 {
  %3 = alloca ptr, align 8
  %4 = alloca i32, align 4
  %5 = alloca i32, align 4
  store ptr %0, ptr %3, align 8
  store i32 %1, ptr %4, align 4
  %6 = load ptr, ptr %3, align 8
  %7 = icmp ne ptr %6, null
  br i1 %7, label %8, label %23

8:                                                ; preds = %2
  store i32 0, ptr %5, align 4
  br label %9

9:                                                ; preds = %18, %8
  %10 = load i32, ptr %5, align 4
  %11 = load i32, ptr %4, align 4
  %12 = icmp ult i32 %10, %11
  br i1 %12, label %13, label %21

13:                                               ; preds = %9
  %14 = load ptr, ptr %3, align 8
  %15 = load i32, ptr %5, align 4
  %16 = zext i32 %15 to i64
  %17 = getelementptr inbounds %struct._zval_struct, ptr %14, i64 %16
  call void @zval_ptr_dtor(ptr noundef %17)
  br label %18

18:                                               ; preds = %13
  %19 = load i32, ptr %5, align 4
  %20 = add i32 %19, 1
  store i32 %20, ptr %5, align 4
  br label %9

21:                                               ; preds = %9
  %22 = load ptr, ptr %3, align 8
  call void @_efree(ptr noundef %22)
  br label %23

23:                                               ; preds = %21, %2
  ret void
}

; Function Attrs: nounwind uwtable
define i32 @php_dom_xpath_callbacks_call_custom_ns(ptr noundef %0, ptr noundef %1, i32 noundef %2, i32 noundef %3, ptr noundef %4, ptr noundef %5) #0 {
  %7 = alloca ptr, align 8
  %8 = alloca ptr, align 8
  %9 = alloca ptr, align 8
  %10 = alloca i64, align 8
  %11 = alloca ptr, align 8
  %12 = alloca ptr, align 8
  %13 = alloca ptr, align 8
  %14 = alloca i32, align 4
  %15 = alloca i32, align 4
  %16 = alloca ptr, align 8
  %17 = alloca ptr, align 8
  %18 = alloca i32, align 4
  %19 = alloca ptr, align 8
  %20 = alloca ptr, align 8
  %21 = alloca ptr, align 8
  %22 = alloca ptr, align 8
  %23 = alloca i64, align 8
  %24 = alloca i32, align 4
  store ptr %0, ptr %12, align 8
  store ptr %1, ptr %13, align 8
  store i32 %2, ptr %14, align 4
  store i32 %3, ptr %15, align 4
  store ptr %4, ptr %16, align 8
  store ptr %5, ptr %17, align 8
  %25 = load i32, ptr %14, align 4
  store i32 %25, ptr %18, align 4
  %26 = load ptr, ptr %13, align 8
  %27 = load i32, ptr %18, align 4
  %28 = load i32, ptr %15, align 4
  %29 = load ptr, ptr %16, align 8
  %30 = load ptr, ptr %17, align 8
  %31 = call ptr @php_dom_xpath_callback_fetch_args(ptr noundef %26, i32 noundef %27, i32 noundef %28, ptr noundef %29, ptr noundef %30)
  store ptr %31, ptr %19, align 8
  %32 = load ptr, ptr %13, align 8
  %33 = getelementptr inbounds %struct._xmlXPathParserContext, ptr %32, i32 0, i32 3
  %34 = load ptr, ptr %33, align 8
  %35 = getelementptr inbounds %struct._xmlXPathContext, ptr %34, i32 0, i32 27
  %36 = load ptr, ptr %35, align 8
  store ptr %36, ptr %20, align 8
  %37 = load ptr, ptr %12, align 8
  %38 = getelementptr inbounds %struct.php_dom_xpath_callbacks, ptr %37, i32 0, i32 1
  %39 = load ptr, ptr %38, align 8
  %40 = icmp ne ptr %39, null
  call void @llvm.assume(i1 %40)
  %41 = load ptr, ptr %12, align 8
  %42 = getelementptr inbounds %struct.php_dom_xpath_callbacks, ptr %41, i32 0, i32 1
  %43 = load ptr, ptr %42, align 8
  %44 = load ptr, ptr %20, align 8
  %45 = load ptr, ptr %20, align 8
  %46 = call i64 @strlen(ptr noundef %45) #9
  store ptr %43, ptr %8, align 8
  store ptr %44, ptr %9, align 8
  store i64 %46, ptr %10, align 8
  %47 = load ptr, ptr %8, align 8
  %48 = load ptr, ptr %9, align 8
  %49 = load i64, ptr %10, align 8
  %50 = call ptr @zend_hash_str_find(ptr noundef %47, ptr noundef %48, i64 noundef %49) #8
  store ptr %50, ptr %11, align 8
  %51 = load ptr, ptr %11, align 8
  %52 = icmp ne ptr %51, null
  br i1 %52, label %53, label %59

53:                                               ; preds = %6
  %54 = load ptr, ptr %11, align 8
  %55 = load ptr, ptr %54, align 8
  %56 = icmp ne ptr %55, null
  call void @llvm.assume(i1 %56)
  %57 = load ptr, ptr %11, align 8
  %58 = load ptr, ptr %57, align 8
  store ptr %58, ptr %7, align 8
  br label %60

59:                                               ; preds = %6
  store ptr null, ptr %7, align 8
  br label %60

60:                                               ; preds = %59, %53
  %61 = load ptr, ptr %7, align 8
  store ptr %61, ptr %21, align 8
  %62 = load ptr, ptr %21, align 8
  %63 = icmp ne ptr %62, null
  call void @llvm.assume(i1 %63)
  %64 = load ptr, ptr %13, align 8
  %65 = getelementptr inbounds %struct._xmlXPathParserContext, ptr %64, i32 0, i32 3
  %66 = load ptr, ptr %65, align 8
  %67 = getelementptr inbounds %struct._xmlXPathContext, ptr %66, i32 0, i32 26
  %68 = load ptr, ptr %67, align 8
  store ptr %68, ptr %22, align 8
  %69 = load ptr, ptr %22, align 8
  %70 = call i64 @strlen(ptr noundef %69) #9
  store i64 %70, ptr %23, align 8
  %71 = load ptr, ptr %12, align 8
  %72 = load ptr, ptr %21, align 8
  %73 = load ptr, ptr %13, align 8
  %74 = load ptr, ptr %19, align 8
  %75 = load i32, ptr %18, align 4
  %76 = load ptr, ptr %22, align 8
  %77 = load i64, ptr %23, align 8
  %78 = call i32 @php_dom_xpath_callback_dispatch(ptr noundef %71, ptr noundef %72, ptr noundef %73, ptr noundef %74, i32 noundef %75, ptr noundef %76, i64 noundef %77)
  store i32 %78, ptr %24, align 4
  %79 = load ptr, ptr %19, align 8
  %80 = load i32, ptr %18, align 4
  call void @php_dom_xpath_callback_cleanup_args(ptr noundef %79, i32 noundef %80)
  %81 = load i32, ptr %24, align 4
  %82 = icmp ne i32 %81, 0
  %83 = xor i1 %82, true
  %84 = xor i1 %83, true
  %85 = zext i1 %84 to i32
  %86 = sext i32 %85 to i64
  %87 = icmp ne i64 %86, 0
  br i1 %87, label %88, label %92

88:                                               ; preds = %60
  %89 = load ptr, ptr %13, align 8
  %90 = call ptr @xmlXPathNewString(ptr noundef @.str)
  %91 = call i32 @valuePush(ptr noundef %89, ptr noundef %90)
  br label %92

92:                                               ; preds = %88, %60
  %93 = load i32, ptr %24, align 4
  ret i32 %93
}