; Function Attrs: nounwind uwtable
define noundef i32 @php_dom_xpath_callbacks_call_custom_ns(ptr nocapture noundef %0, ptr noundef %1, i32 noundef %2, i32 noundef %3, ptr noundef %4, ptr nocapture noundef readonly %5) local_unnamed_addr #0 {
  %7 = tail call fastcc ptr @php_dom_xpath_callback_fetch_args(ptr noundef %1, i32 noundef %2, i32 noundef %3, ptr noundef %4, ptr noundef %5)
  %8 = getelementptr inbounds i8, ptr %1, i64 24
  %9 = load ptr, ptr %8, align 8
  %10 = getelementptr inbounds i8, ptr %9, i64 176
  %11 = load ptr, ptr %10, align 8
  %12 = getelementptr inbounds i8, ptr %0, i64 8
  %13 = load ptr, ptr %12, align 8, !nonnull !4, !noundef !4
  %14 = tail call i64 @strlen(ptr noundef nonnull dereferenceable(1) %11) #10
  %15 = tail call ptr @zend_hash_str_find(ptr noundef nonnull %13, ptr noundef %11, i64 noundef %14) #9
  %.not = icmp ne ptr %15, null
  tail call void @llvm.assume(i1 %.not)
  %16 = load ptr, ptr %15, align 8, !nonnull !4, !noundef !4
  %17 = load ptr, ptr %8, align 8
  %18 = getelementptr inbounds i8, ptr %17, i64 168
  %19 = load ptr, ptr %18, align 8
  %20 = tail call i64 @strlen(ptr noundef nonnull dereferenceable(1) %19) #10
  %21 = tail call fastcc i32 @php_dom_xpath_callback_dispatch(ptr noundef %0, ptr noundef nonnull %16, ptr noundef %1, ptr noundef %7, i32 noundef %2, ptr noundef %19, i64 noundef %20), !range !5
  %.not.i = icmp eq ptr %7, null
  br i1 %.not.i, label %php_dom_xpath_callback_cleanup_args.exit, label %.preheader.i

.preheader.i:                                     ; preds = %6
  %.not8.i = icmp eq i32 %2, 0
  br i1 %.not8.i, label %._crit_edge.i, label %.lr.ph.preheader.i

.lr.ph.preheader.i:                               ; preds = %.preheader.i
  %wide.trip.count.i = zext i32 %2 to i64
  br label %.lr.ph.i

.lr.ph.i:                                         ; preds = %.lr.ph.i, %.lr.ph.preheader.i
  %indvars.iv.i = phi i64 [ 0, %.lr.ph.preheader.i ], [ %indvars.iv.next.i, %.lr.ph.i ]
  %22 = getelementptr inbounds %struct._zval_struct, ptr %7, i64 %indvars.iv.i
  tail call void @zval_ptr_dtor(ptr noundef nonnull %22) #9
  %indvars.iv.next.i = add nuw nsw i64 %indvars.iv.i, 1
  %exitcond.not.i = icmp eq i64 %indvars.iv.next.i, %wide.trip.count.i
  br i1 %exitcond.not.i, label %._crit_edge.i, label %.lr.ph.i

._crit_edge.i:                                    ; preds = %.lr.ph.i, %.preheader.i
  tail call void @_efree(ptr noundef nonnull %7) #9
  br label %php_dom_xpath_callback_cleanup_args.exit

php_dom_xpath_callback_cleanup_args.exit:         ; preds = %6, %._crit_edge.i
  %.not33 = icmp eq i32 %21, 0
  br i1 %.not33, label %26, label %23

23:                                               ; preds = %php_dom_xpath_callback_cleanup_args.exit
  %24 = tail call ptr @xmlXPathNewString(ptr noundef nonnull @.str) #9
  %25 = tail call i32 @valuePush(ptr noundef %1, ptr noundef %24) #9
  br label %26

26:                                               ; preds = %23, %php_dom_xpath_callback_cleanup_args.exit
  ret i32 %21
}